; Function Attrs: mustprogress uwtable
define void @_ZN4toku8locktree7sto_endEv(ptr noundef nonnull align 8 dereferenceable(400) %0) local_unnamed_addr #0 align 2 {
  %2 = getelementptr inbounds nuw i8, ptr %0, i64 312
  %3 = tail call noundef i64 @_ZNK4toku12range_buffer17total_memory_sizeEv(ptr noundef nonnull align 8 dereferenceable(60) %2)
  %4 = load ptr, ptr %0, align 8, !tbaa !4
  %.not = icmp eq ptr %4, null
  br i1 %.not, label %6, label %5

5:                                                ; preds = %1
  tail call void @_ZN4toku16locktree_manager17note_mem_releasedEm(ptr noundef nonnull align 8 dereferenceable(392) %4, i64 noundef %3)
  br label %6

6:                                                ; preds = %5, %1
  tail call void @_ZN4toku12range_buffer7destroyEv(ptr noundef nonnull align 8 dereferenceable(60) %2)
  tail call void @_ZN4toku12range_buffer6createEv(ptr noundef nonnull align 8 dereferenceable(60) %2)
  %7 = getelementptr inbounds nuw i8, ptr %0, i64 304
  store i64 0, ptr %7, align 8, !tbaa !45
  ret void
}